target datalayout = "e-m:e-p270:32:32-p271:32:32-p272:64:64-i64:64-i128:128-f80:128-n8:16:32:64-S128"
target triple = "x86_64-pc-linux-gnu"

%struct.fsck_options = type { ptr, ptr, i32, i32, ptr, %struct.oidset, %struct.oidset, %struct.oidset, %struct.oidset, %struct.oidset, ptr }
%struct.oidset = type { %struct.kh_oid_set }
%struct.kh_oid_set = type { i32, i32, i32, i32, ptr, ptr, ptr }
%struct.repository = type { ptr, ptr, ptr, ptr, ptr, %struct.strmap, %struct.strmap, %struct.repo_path_cache, ptr, ptr, ptr, ptr, %struct.repo_settings, ptr, ptr, ptr, ptr, ptr, ptr, i32, i32, i32, ptr, ptr, i32, i32, i8 }
%struct.strmap = type { %struct.hashmap, ptr, i8 }
%struct.hashmap = type { ptr, ptr, ptr, i32, i32, i32, i32, i8 }
%struct.repo_path_cache = type { ptr, ptr, ptr, ptr, ptr, ptr, ptr }
%struct.repo_settings = type { i32, i32, i32, i32, i32, i32, i32, i32, i32, i32, i32, i32, ptr, i32, i32, i32, i32, i32, i32, i32, i64, i64, i64 }

@.str.3 = private unnamed_addr constant [4 x i8] c" ,|\00", align 1
@.str.4 = private unnamed_addr constant [9 x i8] c"skiplist\00", align 1
@.str.5 = private unnamed_addr constant [25 x i8] c"skiplist requires a path\00", align 1
@the_repository = external global ptr, align 8
@.str.6 = private unnamed_addr constant [18 x i8] c"Missing '=': '%s'\00", align 1
@sane_ctype = external constant [256 x i8], align 16

; Function Attrs: inlinehint nounwind uwtable
define internal i32 @sane_case(i32 noundef %0, i32 noundef %1) #2 {
  %3 = alloca i32, align 4
  %4 = alloca i32, align 4
  store i32 %0, ptr %3, align 4, !tbaa !11
  store i32 %1, ptr %4, align 4, !tbaa !11
  %5 = load i32, ptr %3, align 4, !tbaa !11
  %6 = trunc i32 %5 to i8
  %7 = zext i8 %6 to i64
  %8 = getelementptr inbounds nuw [256 x i8], ptr @sane_ctype, i64 0, i64 %7
  %9 = load i8, ptr %8, align 1, !tbaa !19
  %10 = zext i8 %9 to i32
  %11 = and i32 %10, 4
  %12 = icmp ne i32 %11, 0
  br i1 %12, label %13, label %18

13:                                               ; preds = %2
  %14 = load i32, ptr %3, align 4, !tbaa !11
  %15 = and i32 %14, -33
  %16 = load i32, ptr %4, align 4, !tbaa !11
  %17 = or i32 %15, %16
  store i32 %17, ptr %3, align 4, !tbaa !11
  br label %18

18:                                               ; preds = %13, %2
  %19 = load i32, ptr %3, align 4, !tbaa !11
  ret i32 %19
}

; Function Attrs: nounwind uwtable
define dso_local void @fsck_set_msg_types(ptr noundef %0, ptr noundef %1) #0 {
  %3 = alloca ptr, align 8
  %4 = alloca ptr, align 8
  %5 = alloca ptr, align 8
  %6 = alloca ptr, align 8
  %7 = alloca i32, align 4
  %8 = alloca i32, align 4
  %9 = alloca i32, align 4
  %10 = alloca i32, align 4
  store ptr %0, ptr %3, align 8, !tbaa !24
  store ptr %1, ptr %4, align 8, !tbaa !9
  call void @llvm.lifetime.start.p0(i64 8, ptr %5) #11
  %11 = load ptr, ptr %4, align 8, !tbaa !9
  %12 = call ptr @xstrdup(ptr noundef %11)
  store ptr %12, ptr %5, align 8, !tbaa !9
  call void @llvm.lifetime.start.p0(i64 8, ptr %6) #11
  %13 = load ptr, ptr %5, align 8, !tbaa !9
  store ptr %13, ptr %6, align 8, !tbaa !9
  call void @llvm.lifetime.start.p0(i64 4, ptr %7) #11
  store i32 0, ptr %7, align 4, !tbaa !11
  br label %14

14:                                               ; preds = %128, %126, %2
  %15 = load i32, ptr %7, align 4, !tbaa !11
  %16 = icmp ne i32 %15, 0
  %17 = xor i1 %16, true
  br i1 %17, label %18, label %129

18:                                               ; preds = %14
  call void @llvm.lifetime.start.p0(i64 4, ptr %8) #11
  %19 = load ptr, ptr %5, align 8, !tbaa !9
  %20 = call i64 @strcspn(ptr noundef %19, ptr noundef @.str.3) #12
  %21 = trunc i64 %20 to i32
  store i32 %21, ptr %8, align 4, !tbaa !11
  call void @llvm.lifetime.start.p0(i64 4, ptr %9) #11
  %22 = load ptr, ptr %5, align 8, !tbaa !9
  %23 = load i32, ptr %8, align 4, !tbaa !11
  %24 = sext i32 %23 to i64
  %25 = getelementptr inbounds i8, ptr %22, i64 %24
  %26 = load i8, ptr %25, align 1, !tbaa !19
  %27 = icmp ne i8 %26, 0
  %28 = xor i1 %27, true
  %29 = zext i1 %28 to i32
  store i32 %29, ptr %7, align 4, !tbaa !11
  %30 = load i32, ptr %8, align 4, !tbaa !11
  %31 = icmp ne i32 %30, 0
  br i1 %31, label %35, label %32

32:                                               ; preds = %18
  %33 = load ptr, ptr %5, align 8, !tbaa !9
  %34 = getelementptr inbounds nuw i8, ptr %33, i32 1
  store ptr %34, ptr %5, align 8, !tbaa !9
  store i32 2, ptr %10, align 4
  br label %126, !llvm.loop !39

35:                                               ; preds = %18
  %36 = load ptr, ptr %5, align 8, !tbaa !9
  %37 = load i32, ptr %8, align 4, !tbaa !11
  %38 = sext i32 %37 to i64
  %39 = getelementptr inbounds i8, ptr %36, i64 %38
  store i8 0, ptr %39, align 1, !tbaa !19
  store i32 0, ptr %9, align 4, !tbaa !11
  br label %40

40:                                               ; preds = %75, %35
  %41 = load i32, ptr %9, align 4, !tbaa !11
  %42 = load i32, ptr %8, align 4, !tbaa !11
  %43 = icmp slt i32 %41, %42
  br i1 %43, label %44, label %60

44:                                               ; preds = %40
  %45 = load ptr, ptr %5, align 8, !tbaa !9
  %46 = load i32, ptr %9, align 4, !tbaa !11
  %47 = sext i32 %46 to i64
  %48 = getelementptr inbounds i8, ptr %45, i64 %47
  %49 = load i8, ptr %48, align 1, !tbaa !19
  %50 = sext i8 %49 to i32
  %51 = icmp ne i32 %50, 61
  br i1 %51, label %52, label %60

52:                                               ; preds = %44
  %53 = load ptr, ptr %5, align 8, !tbaa !9
  %54 = load i32, ptr %9, align 4, !tbaa !11
  %55 = sext i32 %54 to i64
  %56 = getelementptr inbounds i8, ptr %53, i64 %55
  %57 = load i8, ptr %56, align 1, !tbaa !19
  %58 = sext i8 %57 to i32
  %59 = icmp ne i32 %58, 58
  br label %60

60:                                               ; preds = %52, %44, %40
  %61 = phi i1 [ false, %44 ], [ false, %40 ], [ %59, %52 ]
  br i1 %61, label %62, label %78

62:                                               ; preds = %60
  %63 = load ptr, ptr %5, align 8, !tbaa !9
  %64 = load i32, ptr %9, align 4, !tbaa !11
  %65 = sext i32 %64 to i64
  %66 = getelementptr inbounds i8, ptr %63, i64 %65
  %67 = load i8, ptr %66, align 1, !tbaa !19
  %68 = zext i8 %67 to i32
  %69 = call i32 @sane_case(i32 noundef %68, i32 noundef 32)
  %70 = trunc i32 %69 to i8
  %71 = load ptr, ptr %5, align 8, !tbaa !9
  %72 = load i32, ptr %9, align 4, !tbaa !11
  %73 = sext i32 %72 to i64
  %74 = getelementptr inbounds i8, ptr %71, i64 %73
  store i8 %70, ptr %74, align 1, !tbaa !19
  br label %75

75:                                               ; preds = %62
  %76 = load i32, ptr %9, align 4, !tbaa !11
  %77 = add nsw i32 %76, 1
  store i32 %77, ptr %9, align 4, !tbaa !11
  br label %40, !llvm.loop !40

78:                                               ; preds = %60
  %79 = load ptr, ptr %5, align 8, !tbaa !9
  %80 = load i32, ptr %9, align 4, !tbaa !11
  %81 = sext i32 %80 to i64
  %82 = getelementptr inbounds i8, ptr %79, i64 %81
  store i8 0, ptr %82, align 1, !tbaa !19
  %83 = load ptr, ptr %5, align 8, !tbaa !9
  %84 = call i32 @strcmp(ptr noundef %83, ptr noundef @.str.4) #12
  %85 = icmp ne i32 %84, 0
  br i1 %85, label %107, label %86

86:                                               ; preds = %78
  %87 = load i32, ptr %9, align 4, !tbaa !11
  %88 = load i32, ptr %8, align 4, !tbaa !11
  %89 = icmp eq i32 %87, %88
  br i1 %89, label %90, label %91

90:                                               ; preds = %86
  call void (ptr, ...) @die(ptr noundef @.str.5) #13
  unreachable

91:                                               ; preds = %86
  %92 = load ptr, ptr %3, align 8, !tbaa !24
  %93 = getelementptr inbounds nuw %struct.fsck_options, ptr %92, i32 0, i32 5
  %94 = load ptr, ptr %5, align 8, !tbaa !9
  %95 = load i32, ptr %9, align 4, !tbaa !11
  %96 = sext i32 %95 to i64
  %97 = getelementptr inbounds i8, ptr %94, i64 %96
  %98 = getelementptr inbounds i8, ptr %97, i64 1
  %99 = load ptr, ptr @the_repository, align 8, !tbaa !41
  %100 = getelementptr inbounds nuw %struct.repository, ptr %99, i32 0, i32 17
  %101 = load ptr, ptr %100, align 8, !tbaa !43
  call void @oidset_parse_file(ptr noundef %93, ptr noundef %98, ptr noundef %101)
  %102 = load i32, ptr %8, align 4, !tbaa !11
  %103 = add nsw i32 %102, 1
  %104 = load ptr, ptr %5, align 8, !tbaa !9
  %105 = sext i32 %103 to i64
  %106 = getelementptr inbounds i8, ptr %104, i64 %105
  store ptr %106, ptr %5, align 8, !tbaa !9
  store i32 2, ptr %10, align 4
  br label %126, !llvm.loop !39

107:                                              ; preds = %78
  %108 = load i32, ptr %9, align 4, !tbaa !11
  %109 = load i32, ptr %8, align 4, !tbaa !11
  %110 = icmp eq i32 %108, %109
  br i1 %110, label %111, label %113

111:                                              ; preds = %107
  %112 = load ptr, ptr %5, align 8, !tbaa !9
  call void (ptr, ...) @die(ptr noundef @.str.6, ptr noundef %112) #13
  unreachable

113:                                              ; preds = %107
  %114 = load ptr, ptr %3, align 8, !tbaa !24
  %115 = load ptr, ptr %5, align 8, !tbaa !9
  %116 = load ptr, ptr %5, align 8, !tbaa !9
  %117 = load i32, ptr %9, align 4, !tbaa !11
  %118 = sext i32 %117 to i64
  %119 = getelementptr inbounds i8, ptr %116, i64 %118
  %120 = getelementptr inbounds i8, ptr %119, i64 1
  call void @fsck_set_msg_type(ptr noundef %114, ptr noundef %115, ptr noundef %120)
  %121 = load i32, ptr %8, align 4, !tbaa !11
  %122 = add nsw i32 %121, 1
  %123 = load ptr, ptr %5, align 8, !tbaa !9
  %124 = sext i32 %122 to i64
  %125 = getelementptr inbounds i8, ptr %123, i64 %124
  store ptr %125, ptr %5, align 8, !tbaa !9
  store i32 0, ptr %10, align 4
  br label %126

126:                                              ; preds = %113, %91, %32
  call void @llvm.lifetime.end.p0(i64 4, ptr %9) #11
  call void @llvm.lifetime.end.p0(i64 4, ptr %8) #11
  %127 = load i32, ptr %10, align 4
  switch i32 %127, label %131 [
    i32 0, label %128
    i32 2, label %14
  ]

128:                                              ; preds = %126
  br label %14, !llvm.loop !39

129:                                              ; preds = %14
  %130 = load ptr, ptr %6, align 8, !tbaa !9
  call void @free(ptr noundef %130) #11
  call void @llvm.lifetime.end.p0(i64 4, ptr %7) #11
  call void @llvm.lifetime.end.p0(i64 8, ptr %6) #11
  call void @llvm.lifetime.end.p0(i64 8, ptr %5) #11
  ret void

131:                                              ; preds = %126
  unreachable
}