; Function Attrs: nounwind uwtable
define dso_local void @fsck_set_msg_types(ptr noundef %0, ptr noundef %1) local_unnamed_addr #0 {
  %3 = tail call ptr @xstrdup(ptr noundef %1) #16
  %4 = getelementptr inbounds nuw i8, ptr %0, i64 32
  br label %5

5:                                                ; preds = %2, %39
  %.04057 = phi ptr [ %3, %2 ], [ %40, %39 ]
  %6 = tail call i64 @strcspn(ptr noundef %.04057, ptr noundef nonnull @.str.3) #17
  %7 = trunc i64 %6 to i32
  %sext = shl i64 %6, 32
  %8 = ashr exact i64 %sext, 32
  %9 = getelementptr inbounds i8, ptr %.04057, i64 %8
  %10 = load i8, ptr %9, align 1, !tbaa !15
  %.not58 = icmp eq i8 %10, 0
  %.not = icmp eq i32 %7, 0
  br i1 %.not, label %39, label %11, !llvm.loop !31

11:                                               ; preds = %5
  store i8 0, ptr %9, align 1, !tbaa !15
  %12 = icmp sgt i32 %7, 0
  br i1 %12, label %.lr.ph.preheader, label %.critedge

.lr.ph.preheader:                                 ; preds = %11
  %wide.trip.count = and i64 %6, 2147483647
  br label %.lr.ph

.lr.ph:                                           ; preds = %.lr.ph.preheader, %15
  %indvars.iv = phi i64 [ 0, %.lr.ph.preheader ], [ %indvars.iv.next, %15 ]
  %13 = getelementptr inbounds nuw i8, ptr %.04057, i64 %indvars.iv
  %14 = load i8, ptr %13, align 1, !tbaa !15
  switch i8 %14, label %15 [
    i8 61, label %.critedge.loopexit.split.loop.exit
    i8 58, label %.critedge.loopexit.split.loop.exit
  ]

15:                                               ; preds = %.lr.ph
  %16 = zext i8 %14 to i64
  %17 = getelementptr inbounds nuw [256 x i8], ptr @sane_ctype, i64 0, i64 %16
  %18 = load i8, ptr %17, align 1, !tbaa !15
  %19 = shl i8 %18, 3
  %20 = and i8 %19, 32
  %spec.select.i49 = or i8 %20, %14
  store i8 %spec.select.i49, ptr %13, align 1, !tbaa !15
  %indvars.iv.next = add nuw nsw i64 %indvars.iv, 1
  %exitcond.not = icmp eq i64 %indvars.iv.next, %wide.trip.count
  br i1 %exitcond.not, label %.critedge, label %.lr.ph, !llvm.loop !32

.critedge.loopexit.split.loop.exit:               ; preds = %.lr.ph, %.lr.ph
  %21 = trunc nuw nsw i64 %indvars.iv to i32
  br label %.critedge

.critedge:                                        ; preds = %15, %.critedge.loopexit.split.loop.exit, %11
  %.0.lcssa = phi i32 [ 0, %11 ], [ %21, %.critedge.loopexit.split.loop.exit ], [ %7, %15 ]
  %22 = zext nneg i32 %.0.lcssa to i64
  %23 = getelementptr inbounds nuw i8, ptr %.04057, i64 %22
  store i8 0, ptr %23, align 1, !tbaa !15
  %24 = tail call i32 @strcmp(ptr noundef nonnull dereferenceable(1) %.04057, ptr noundef nonnull dereferenceable(9) @.str.4) #17
  %.not46 = icmp eq i32 %24, 0
  %25 = icmp eq i32 %.0.lcssa, %7
  br i1 %.not46, label %26, label %34

26:                                               ; preds = %.critedge
  br i1 %25, label %27, label %28

27:                                               ; preds = %26
  tail call void (ptr, ...) @die(ptr noundef nonnull @.str.5) #18
  unreachable

28:                                               ; preds = %26
  %29 = getelementptr inbounds nuw i8, ptr %23, i64 1
  %30 = load ptr, ptr @the_repository, align 8, !tbaa !33
  %31 = getelementptr inbounds nuw i8, ptr %30, i64 400
  %32 = load ptr, ptr %31, align 8, !tbaa !35
  tail call void @oidset_parse_file(ptr noundef nonnull %4, ptr noundef nonnull %29, ptr noundef %32) #16
  %sext47 = add i64 %sext, 4294967296
  %33 = ashr exact i64 %sext47, 32
  br label %39, !llvm.loop !31

34:                                               ; preds = %.critedge
  br i1 %25, label %35, label %36

35:                                               ; preds = %34
  tail call void (ptr, ...) @die(ptr noundef nonnull @.str.6, ptr noundef nonnull %.04057) #18
  unreachable

36:                                               ; preds = %34
  %37 = getelementptr inbounds nuw i8, ptr %23, i64 1
  tail call void @fsck_set_msg_type(ptr noundef %0, ptr noundef nonnull %.04057, ptr noundef nonnull %37)
  %sext48 = add i64 %sext, 4294967296
  %38 = ashr exact i64 %sext48, 32
  br label %39

39:                                               ; preds = %5, %36, %28
  %.sink = phi i64 [ %38, %36 ], [ %33, %28 ], [ 1, %5 ]
  %40 = getelementptr inbounds i8, ptr %.04057, i64 %.sink
  br i1 %.not58, label %41, label %5

41:                                               ; preds = %39
  tail call void @free(ptr noundef %3) #16
  ret void
}